; Function Attrs: mustprogress null_pointer_is_valid sspstrong uwtable
define void @_ZN9UatDialog14modelRowsResetEv(ptr noundef readonly align 8 captures(none) dereferenceable_or_null(120) %0) local_unnamed_addr #0 align 2 {
  %2 = alloca %class.QModelIndex, align 8
  %3 = getelementptr inbounds nuw i8, ptr %0, i64 72
  %4 = load ptr, ptr %3, align 8
  %5 = getelementptr inbounds nuw i8, ptr %4, i64 40
  %6 = load ptr, ptr %5, align 8
  tail call void @_ZN7QWidget10setEnabledEb(ptr noundef align 8 dereferenceable_or_null(40) %6, i1 noundef zeroext false)
  %7 = load ptr, ptr %3, align 8
  %8 = getelementptr inbounds nuw i8, ptr %7, i64 72
  %9 = load ptr, ptr %8, align 8
  %10 = getelementptr inbounds nuw i8, ptr %0, i64 80
  %11 = load ptr, ptr %10, align 8
  call void @llvm.lifetime.start.p0(i64 24, ptr nonnull %2) #21
  store i32 -1, ptr %2, align 8
  %12 = getelementptr inbounds nuw i8, ptr %2, i64 4
  store i32 -1, ptr %12, align 4
  %13 = getelementptr inbounds nuw i8, ptr %2, i64 8
  call void @llvm.memset.p0.i64(ptr noundef nonnull align 8 dereferenceable(16) %13, i8 0, i64 16, i1 false)
  %14 = load ptr, ptr %11, align 8
  %15 = getelementptr inbounds nuw i8, ptr %14, i64 120
  %16 = load ptr, ptr %15, align 8
  %17 = call noundef i32 %16(ptr noundef align 8 dereferenceable_or_null(80) %11, ptr noundef nonnull align 8 dereferenceable(24) %2)
  %18 = icmp ne i32 %17, 0
  call void @_ZN7QWidget10setEnabledEb(ptr noundef align 8 dereferenceable_or_null(40) %9, i1 noundef zeroext %18)
  call void @llvm.lifetime.end.p0(i64 24, ptr nonnull %2) #21
  %19 = load ptr, ptr %3, align 8
  %20 = getelementptr inbounds nuw i8, ptr %19, i64 48
  %21 = load ptr, ptr %20, align 8
  call void @_ZN7QWidget10setEnabledEb(ptr noundef align 8 dereferenceable_or_null(40) %21, i1 noundef zeroext false)
  %22 = load ptr, ptr %3, align 8
  %23 = getelementptr inbounds nuw i8, ptr %22, i64 56
  %24 = load ptr, ptr %23, align 8
  call void @_ZN7QWidget10setEnabledEb(ptr noundef align 8 dereferenceable_or_null(40) %24, i1 noundef zeroext false)
  %25 = load ptr, ptr %3, align 8
  %26 = getelementptr inbounds nuw i8, ptr %25, i64 64
  %27 = load ptr, ptr %26, align 8
  call void @_ZN7QWidget10setEnabledEb(ptr noundef align 8 dereferenceable_or_null(40) %27, i1 noundef zeroext false)
  ret void
}